; Function Attrs: nounwind uwtable
define ptr @l_Lake_Toml_timeAuxFn___boxed(ptr noundef %0, ptr noundef %1, ptr noundef %2) local_unnamed_addr #1 {
  %4 = ptrtoint ptr %0 to i64
  %5 = lshr i64 %4, 1
  %6 = trunc i64 %5 to i8
  %7 = and i64 %4, 1
  %.not = icmp eq i64 %7, 0
  br i1 %.not, label %8, label %lean_dec.exit6

8:                                                ; preds = %3
  %9 = load i32, ptr %0, align 4, !tbaa !4
  %10 = icmp sgt i32 %9, 1
  br i1 %10, label %11, label %13, !prof !9

11:                                               ; preds = %8
  %12 = add nsw i32 %9, -1
  store i32 %12, ptr %0, align 4, !tbaa !4
  br label %lean_dec.exit6

13:                                               ; preds = %8
  %.not.i = icmp eq i32 %9, 0
  br i1 %.not.i, label %lean_dec.exit6, label %14

14:                                               ; preds = %13
  tail call void @lean_dec_ref_cold(ptr noundef nonnull %0) #4
  br label %lean_dec.exit6

lean_dec.exit6:                                   ; preds = %14, %13, %11, %3
  %15 = tail call ptr @l_Lake_Toml_timeAuxFn(i8 noundef zeroext %6, ptr noundef %1, ptr noundef %2)
  %16 = ptrtoint ptr %1 to i64
  %17 = and i64 %16, 1
  %.not9 = icmp eq i64 %17, 0
  br i1 %.not9, label %18, label %lean_dec.exit

18:                                               ; preds = %lean_dec.exit6
  %19 = load i32, ptr %1, align 4, !tbaa !4
  %20 = icmp sgt i32 %19, 1
  br i1 %20, label %21, label %23, !prof !9

21:                                               ; preds = %18
  %22 = add nsw i32 %19, -1
  store i32 %22, ptr %1, align 4, !tbaa !4
  br label %lean_dec.exit

23:                                               ; preds = %18
  %.not.i7 = icmp eq i32 %19, 0
  br i1 %.not.i7, label %lean_dec.exit, label %24

24:                                               ; preds = %23
  tail call void @lean_dec_ref_cold(ptr noundef nonnull %1) #4
  br label %lean_dec.exit

lean_dec.exit:                                    ; preds = %24, %23, %21, %lean_dec.exit6
  ret ptr %15
}